; ModuleID = '19/310.c'
source_filename = "19/310.c"
target datalayout = "e-m:e-p270:32:32-p271:32:32-p272:64:64-i64:64-f80:128-n8:16:32:64-S128"
target triple = "x86_64-pc-linux-gnu"

@.str = private unnamed_addr constant [3 x i8] c"%s\00", align 1
@.str.1 = private unnamed_addr constant [3 x i8] c"%c\00", align 1
@.str.2 = private unnamed_addr constant [2 x i8] c"\0A\00", align 1

; Function Attrs: noinline nounwind uwtable
define dso_local i32 @bijiao(i32 %0, i8* %1, i32 %2, i8* %3) #0 {
  %5 = alloca i32, align 4
  %6 = alloca i32, align 4
  %7 = alloca i8*, align 8
  %8 = alloca i32, align 4
  %9 = alloca i8*, align 8
  %10 = alloca i32, align 4
  %11 = alloca i32, align 4
  store i32 %0, i32* %6, align 4
  store i8* %1, i8** %7, align 8
  store i32 %2, i32* %8, align 4
  store i8* %3, i8** %9, align 8
  store i32 0, i32* %11, align 4
  store i32 0, i32* %10, align 4
  br label %12

12:                                               ; preds = %34, %4
  %13 = load i32, i32* %10, align 4
  %14 = load i32, i32* %8, align 4
  %15 = icmp slt i32 %13, %14
  br i1 %15, label %16, label %37

16:                                               ; preds = %12
  %17 = load i8*, i8** %7, align 8
  %18 = load i32, i32* %6, align 4
  %19 = load i32, i32* %10, align 4
  %20 = add nsw i32 %18, %19
  %21 = sext i32 %20 to i64
  %22 = getelementptr inbounds i8, i8* %17, i64 %21
  %23 = load i8, i8* %22, align 1
  %24 = sext i8 %23 to i32
  %25 = load i8*, i8** %9, align 8
  %26 = load i32, i32* %10, align 4
  %27 = sext i32 %26 to i64
  %28 = getelementptr inbounds i8, i8* %25, i64 %27
  %29 = load i8, i8* %28, align 1
  %30 = sext i8 %29 to i32
  %31 = icmp ne i32 %24, %30
  br i1 %31, label %32, label %33

32:                                               ; preds = %16
  store i32 0, i32* %5, align 4
  br label %41

33:                                               ; preds = %16
  br label %34

34:                                               ; preds = %33
  %35 = load i32, i32* %10, align 4
  %36 = add nsw i32 %35, 1
  store i32 %36, i32* %10, align 4
  br label %12

37:                                               ; preds = %12
  %38 = load i32, i32* %11, align 4
  %39 = icmp eq i32 %38, 0
  br i1 %39, label %40, label %41

40:                                               ; preds = %37
  store i32 1, i32* %5, align 4
  br label %41

41:                                               ; preds = %32, %40, %37
  %42 = load i32, i32* %5, align 4
  ret i32 %42
}

; Function Attrs: noinline nounwind uwtable
define dso_local i32 @main() #0 {
  %1 = alloca i32, align 4
  %2 = alloca [1000 x i8], align 16
  %3 = alloca [100 x i8], align 16
  %4 = alloca [100 x i8], align 16
  %5 = alloca i32, align 4
  %6 = alloca i32, align 4
  %7 = alloca i32, align 4
  %8 = alloca i32, align 4
  store i32 0, i32* %1, align 4
  %9 = getelementptr inbounds [1000 x i8], [1000 x i8]* %2, i64 0, i64 0
  %10 = call i32 (i8*, ...) bitcast (i32 (...)* @gets to i32 (i8*, ...)*)(i8* %9)
  %11 = getelementptr inbounds [100 x i8], [100 x i8]* %3, i64 0, i64 0
  %12 = call i32 (i8*, ...) bitcast (i32 (...)* @gets to i32 (i8*, ...)*)(i8* %11)
  %13 = getelementptr inbounds [100 x i8], [100 x i8]* %4, i64 0, i64 0
  %14 = call i32 (i8*, ...) bitcast (i32 (...)* @gets to i32 (i8*, ...)*)(i8* %13)
  %15 = getelementptr inbounds [1000 x i8], [1000 x i8]* %2, i64 0, i64 0
  %16 = call i64 @strlen(i8* %15) #3
  %17 = trunc i64 %16 to i32
  store i32 %17, i32* %8, align 4
  %18 = getelementptr inbounds [100 x i8], [100 x i8]* %3, i64 0, i64 0
  %19 = call i64 @strlen(i8* %18) #3
  %20 = trunc i64 %19 to i32
  store i32 %20, i32* %6, align 4
  %21 = getelementptr inbounds [100 x i8], [100 x i8]* %4, i64 0, i64 0
  %22 = call i64 @strlen(i8* %21) #3
  %23 = trunc i64 %22 to i32
  store i32 %23, i32* %7, align 4
  store i32 0, i32* %5, align 4
  br label %24

24:                                               ; preds = %131, %0
  %25 = load i32, i32* %5, align 4
  %26 = load i32, i32* %8, align 4
  %27 = icmp slt i32 %25, %26
  br i1 %27, label %28, label %134

28:                                               ; preds = %24
  %29 = load i32, i32* %5, align 4
  %30 = icmp eq i32 %29, 0
  br i1 %30, label %31, label %62

31:                                               ; preds = %28
  %32 = load i32, i32* %5, align 4
  %33 = getelementptr inbounds [1000 x i8], [1000 x i8]* %2, i64 0, i64 0
  %34 = load i32, i32* %6, align 4
  %35 = getelementptr inbounds [100 x i8], [100 x i8]* %3, i64 0, i64 0
  %36 = call i32 @bijiao(i32 %32, i8* %33, i32 %34, i8* %35)
  %37 = icmp eq i32 %36, 1
  br i1 %37, label %38, label %54

38:                                               ; preds = %31
  %39 = load i32, i32* %5, align 4
  %40 = load i32, i32* %6, align 4
  %41 = add nsw i32 %39, %40
  %42 = sext i32 %41 to i64
  %43 = getelementptr inbounds [1000 x i8], [1000 x i8]* %2, i64 0, i64 %42
  %44 = load i8, i8* %43, align 1
  %45 = sext i8 %44 to i32
  %46 = icmp eq i32 %45, 32
  br i1 %46, label %47, label %54

47:                                               ; preds = %38
  %48 = getelementptr inbounds [100 x i8], [100 x i8]* %4, i64 0, i64 0
  %49 = call i32 (i8*, ...) @printf(i8* getelementptr inbounds ([3 x i8], [3 x i8]* @.str, i64 0, i64 0), i8* %48)
  %50 = load i32, i32* %5, align 4
  %51 = load i32, i32* %6, align 4
  %52 = add nsw i32 %50, %51
  %53 = sub nsw i32 %52, 1
  store i32 %53, i32* %5, align 4
  br label %61

54:                                               ; preds = %38, %31
  %55 = load i32, i32* %5, align 4
  %56 = sext i32 %55 to i64
  %57 = getelementptr inbounds [1000 x i8], [1000 x i8]* %2, i64 0, i64 %56
  %58 = load i8, i8* %57, align 1
  %59 = sext i8 %58 to i32
  %60 = call i32 (i8*, ...) @printf(i8* getelementptr inbounds ([3 x i8], [3 x i8]* @.str.1, i64 0, i64 0), i32 %59)
  br label %61

61:                                               ; preds = %54, %47
  br label %130

62:                                               ; preds = %28
  %63 = load i32, i32* %5, align 4
  %64 = getelementptr inbounds [1000 x i8], [1000 x i8]* %2, i64 0, i64 0
  %65 = load i32, i32* %6, align 4
  %66 = getelementptr inbounds [100 x i8], [100 x i8]* %3, i64 0, i64 0
  %67 = call i32 @bijiao(i32 %63, i8* %64, i32 %65, i8* %66)
  %68 = icmp eq i32 %67, 1
  br i1 %68, label %69, label %93

69:                                               ; preds = %62
  %70 = load i32, i32* %5, align 4
  %71 = load i32, i32* %6, align 4
  %72 = add nsw i32 %70, %71
  %73 = sext i32 %72 to i64
  %74 = getelementptr inbounds [1000 x i8], [1000 x i8]* %2, i64 0, i64 %73
  %75 = load i8, i8* %74, align 1
  %76 = sext i8 %75 to i32
  %77 = icmp eq i32 %76, 32
  br i1 %77, label %78, label %93

78:                                               ; preds = %69
  %79 = load i32, i32* %5, align 4
  %80 = sub nsw i32 %79, 1
  %81 = sext i32 %80 to i64
  %82 = getelementptr inbounds [1000 x i8], [1000 x i8]* %2, i64 0, i64 %81
  %83 = load i8, i8* %82, align 1
  %84 = sext i8 %83 to i32
  %85 = icmp eq i32 %84, 32
  br i1 %85, label %86, label %93

86:                                               ; preds = %78
  %87 = getelementptr inbounds [100 x i8], [100 x i8]* %4, i64 0, i64 0
  %88 = call i32 (i8*, ...) @printf(i8* getelementptr inbounds ([3 x i8], [3 x i8]* @.str, i64 0, i64 0), i8* %87)
  %89 = load i32, i32* %5, align 4
  %90 = load i32, i32* %6, align 4
  %91 = add nsw i32 %89, %90
  %92 = sub nsw i32 %91, 1
  store i32 %92, i32* %5, align 4
  br label %129

93:                                               ; preds = %78, %69, %62
  %94 = load i32, i32* %5, align 4
  %95 = getelementptr inbounds [1000 x i8], [1000 x i8]* %2, i64 0, i64 0
  %96 = load i32, i32* %6, align 4
  %97 = getelementptr inbounds [100 x i8], [100 x i8]* %3, i64 0, i64 0
  %98 = call i32 @bijiao(i32 %94, i8* %95, i32 %96, i8* %97)
  %99 = icmp eq i32 %98, 1
  br i1 %99, label %100, label %121

100:                                              ; preds = %93
  %101 = load i32, i32* %5, align 4
  %102 = load i32, i32* %6, align 4
  %103 = add nsw i32 %101, %102
  %104 = load i32, i32* %8, align 4
  %105 = icmp eq i32 %103, %104
  br i1 %105, label %106, label %121

106:                                              ; preds = %100
  %107 = load i32, i32* %5, align 4
  %108 = sub nsw i32 %107, 1
  %109 = sext i32 %108 to i64
  %110 = getelementptr inbounds [1000 x i8], [1000 x i8]* %2, i64 0, i64 %109
  %111 = load i8, i8* %110, align 1
  %112 = sext i8 %111 to i32
  %113 = icmp eq i32 %112, 32
  br i1 %113, label %114, label %121

114:                                              ; preds = %106
  %115 = getelementptr inbounds [100 x i8], [100 x i8]* %4, i64 0, i64 0
  %116 = call i32 (i8*, ...) @printf(i8* getelementptr inbounds ([3 x i8], [3 x i8]* @.str, i64 0, i64 0), i8* %115)
  %117 = load i32, i32* %5, align 4
  %118 = load i32, i32* %6, align 4
  %119 = add nsw i32 %117, %118
  %120 = sub nsw i32 %119, 1
  store i32 %120, i32* %5, align 4
  br label %128

121:                                              ; preds = %106, %100, %93
  %122 = load i32, i32* %5, align 4
  %123 = sext i32 %122 to i64
  %124 = getelementptr inbounds [1000 x i8], [1000 x i8]* %2, i64 0, i64 %123
  %125 = load i8, i8* %124, align 1
  %126 = sext i8 %125 to i32
  %127 = call i32 (i8*, ...) @printf(i8* getelementptr inbounds ([3 x i8], [3 x i8]* @.str.1, i64 0, i64 0), i32 %126)
  br label %128

128:                                              ; preds = %121, %114
  br label %129

129:                                              ; preds = %128, %86
  br label %130

130:                                              ; preds = %129, %61
  br label %131

131:                                              ; preds = %130
  %132 = load i32, i32* %5, align 4
  %133 = add nsw i32 %132, 1
  store i32 %133, i32* %5, align 4
  br label %24

134:                                              ; preds = %24
  %135 = call i32 (i8*, ...) @printf(i8* getelementptr inbounds ([2 x i8], [2 x i8]* @.str.2, i64 0, i64 0))
  ret i32 0
}

declare dso_local i32 @gets(...) #1

; Function Attrs: nounwind readonly
declare dso_local i64 @strlen(i8*) #2

declare dso_local i32 @printf(i8*, ...) #1


!llvm.module.flags = !{!0}
!llvm.ident = !{!1}

!0 = !{i32 1, !"wchar_size", i32 4}
!1 = !{!"clang version 10.0.0-4ubuntu1 "}
